(lp0
Vabject
p1
aVabout
p2
aVabreast
p3
aVacademic
p4
aVacceptive
p5
aVaccommodative
p6
aVaccordant
p7
aVaccountable
p8
aVacentric
p9
aVacrobatic
p10
aVactivated
p11
aVactive
p12
aVactive_agent
p13
aVactive_voice
p14
aVactivist
p15
aVactuate
p16
aVacute
p17
aVad-lib
p18
aVaddress
p19
aVadmissive
p20
aVadroit
p21
aVadventive
p22
aVadventuresome
p23
aVadventurous
p24
aVadvised
p25
aVadynamic
p26
aVaffectation
p27
aVaffectedness
p28
aVaffectional
p29
aVaffirmative
p30
aVafflictive
p31
aVafford
p32
aVaffright
p33
aVaflutter
p34
aVafraid
p35
aVagape
p36
aVagaze
p37
aVaggravated
p38
aVaggressive
p39
aVagile
p40
aVagitate
p41
aVagitated
p42
aVagog
p43
aVagreeable
p44
aVaim
p45
aVajar
p46
aValert
p47
aValien
p48
aValienated
p49
aValive
p50
aVall_in
p51
aVallow
p52
aValone
p53
aValoof
p54
aVambitious
p55
aVamenable
p56
aVamentiferous
p57
aVamnesic
p58
aVamusing
p59
aVanchor
p60
aVanemic
p61
aVangry
p62
aVanhedonia
p63
aVanomic
p64
aVanswerable
p65
aVanswering
p66
aVantagonistic
p67
aVantic
p68
aVantiphonal
p69
aVantiseptic
p70
aVantsy
p71
aVanxious
p72
aVapathetic
p73
aVappealing
p74
aVapplicative
p75
aVapplied
p76
aVappraising
p77
aVapprehensive
p78
aVappropriate
p79
aVapt
p80
aVarable
p81
aVarbitrary
p82
aVarouse
p83
aVaroused
p84
aVarranged
p85
aVartless
p86
aVascertain
p87
aVascertained
p88
aVashamed
p89
aVasleep
p90
aVasphyxiating
p91
aVaspirant
p92
aVassailable
p93
aVassimilative
p94
aVat_bay
p95
aVat_fault
p96
aVat_loggerheads
p97
aVattentive
p98
aVaudacious
p99
aVautonomous
p100
aVavailable
p101
aVaverage
p102
aVaverage_out
p103
aVaweary
p104
aVbackward
p105
aVbad
p106
aVbald
p107
aVbanal
p108
aVbase
p109
aVbathetic
p110
aVbattleful
p111
aVbe_after
p112
aVbe_amiss
p113
aVbelligerent
p114
aVbemused
p115
aVbenevolent
p116
aVbenumb
p117
aVbenumbed
p118
aVbest-selling
p119
aVbigmouthed
p120
aVbind
p121
aVbitter
p122
aVbittersweet
p123
aVbizarre
p124
aVblabbermouthed
p125
aVblabby
p126
aVblack
p127
aVblameworthy
p128
aVblank
p129
aVblank_shell
p130
aVbleary
p131
aVblessed
p132
aVblissful
p133
aVblood-and-guts
p134
aVbloodguilty
p135
aVblow-by-blow
p136
aVblown
p137
aVblue
p138
aVblunt
p139
aVbook
p140
aVbookable
p141
aVbooked
p142
aVbookish
p143
aVbore
p144
aVbored
p145
aVbouncy
p146
aVbound
p147
aVbrainish
p148
aVbreathless
p149
aVbreathtaking
p150
aVbreeze
p151
aVbright
p152
aVbrisk
p153
aVbrokenhearted
p154
aVbrooding
p155
aVbroody
p156
aVbrutal
p157
aVbudge
p158
aVbullish
p159
aVburned-out
p160
aVbustling
p161
aVbusy
p162
aVcagey
p163
aVcagy
p164
aVcalculate
p165
aVcalculated
p166
aVcampaign
p167
aVcandid
p168
aVcanny
p169
aVcanty
p170
aVcapable
p171
aVcapacity
p172
aVcapitalistic
p173
aVcapricious
p174
aVcaptious
p175
aVcare
p176
aVcareful
p177
aVcareless
p178
aVcareworn
p179
aVcase
p180
aVcast_down
p181
aVcasual
p182
aVcathartic
p183
aVcausative
p184
aVcautious
p185
aVcensorious
p186
aVcertain
p187
aVchaffy
p188
aVchallenging
p189
aVchangeable
p190
aVchannelise
p191
aVchannelize
p192
aVcharacter
p193
aVcharge
p194
aVcharge_up
p195
aVchargeable
p196
aVcharged
p197
aVcharitable
p198
aVchaste
p199
aVchatty
p200
aVcheck
p201
aVcheerful
p202
aVchild's_play
p203
aVchurchgoing
p204
aVchurchly
p205
aVchurn_up
p206
aVchurning
p207
aVcinch
p208
aVclang
p209
aVclanging
p210
aVclangor
p211
aVclangorous
p212
aVclassified
p213
aVclean
p214
aVclean-living
p215
aVclean_and_jerk
p216
aVclean_house
p217
aVcleanable
p218
aVcleanly
p219
aVcleanse
p220
aVclear
p221
aVclever
p222
aVcliff-hanging
p223
aVclog
p224
aVclose
p225
aVco-op
p226
aVcoarse
p227
aVcoaxing
p228
aVcogent
p229
aVcogitative
p230
aVcognitive_content
p231
aVcoherent
p232
aVcold
p233
aVcollaborative
p234
aVcombat-ready
p235
aVcomic
p236
aVcomical
p237
aVcommand_prompt
p238
aVcommiserative
p239
aVcommon
p240
aVcommonplace
p241
aVcommove
p242
aVcommunicative
p243
aVcompelling
p244
aVcompetitive
p245
aVcomplacent
p246
aVcomplete
p247
aVcompulsive
p248
aVconcentrated
p249
aVconcern
p250
aVconcerted
p251
aVconcordant
p252
aVcondolent
p253
aVconduct
p254
aVconfident
p255
aVconfigured
p256
aVconformable
p257
aVconfused
p258
aVconjunct
p259
aVconjunctive
p260
aVconscience-smitten
p261
aVconscientious
p262
aVconservative
p263
aVconsider
p264
aVconsiderate
p265
aVconsistent
p266
aVconsonant
p267
aVconstipate
p268
aVconstipated
p269
aVconstricted
p270
aVconstructive
p271
aVconsume
p272
aVconsuming
p273
aVcontemplative
p274
aVcontent
p275
aVcontented
p276
aVcontentedness
p277
aVcontrive
p278
aVconversant
p279
aVcooperative
p280
aVcoordinate
p281
aVcorneous
p282
aVcornered
p283
aVcorporate
p284
aVcorrode
p285
aVcounteractive
p286
aVcranky
p287
aVcrazy
p288
aVcreative
p289
aVcreditworthy
p290
aVcretinous
p291
aVcriminal
p292
aVcritical
p293
aVcrucial
p294
aVcrusade
p295
aVcue
p296
aVcultural
p297
aVcunning
p298
aVcurious
p299
aVdangerous
p300
aVdash
p301
aVdaunt
p302
aVdazed
p303
aVdead
p304
aVdebate
p305
aVdebile
p306
aVdecelerate
p307
aVdeceptive
p308
aVdecide
p309
aVdeciding
p310
aVdecisive
p311
aVdecompress
p312
aVdecrepit
p313
aVdeep
p314
aVdefine
p315
aVdefinite
p316
aVdegage
p317
aVdeject
p318
aVdejected
p319
aVdelay
p320
aVdelayed
p321
aVdeliberate
p322
aVdeliberative
p323
aVdelicate
p324
aVdelinquent
p325
aVdelirious
p326
aVdelusional
p327
aVdelusory
p328
aVdemocratic
p329
aVdemoralise
p330
aVdemoralize
p331
aVdependable
p332
aVdepersonalise
p333
aVdepersonalize
p334
aVdepicted_object
p335
aVdeplete
p336
aVdeplorable
p337
aVdeprecative
p338
aVdepress
p339
aVdepressed
p340
aVdesign
p341
aVdespairing
p342
aVdesperate
p343
aVdespicable
p344
aVdespondent
p345
aVdetailed
p346
aVdetermine
p347
aVdetermined
p348
aVdevelopmentally_challenged
p349
aVdevise
p350
aVdevout
p351
aVdianoetic
p352
aVdictated
p353
aVdifficult
p354
aVdiffident
p355
aVdigressive
p356
aVdiligent
p357
aVdiluted
p358
aVdim-witted
p359
aVdirect
p360
aVdirected
p361
aVdirty
p362
aVdiscontented
p363
aVdiscriminating
p364
aVdiscriminative
p365
aVdiseased
p366
aVdisgust
p367
aVdishonest
p368
aVdismay
p369
aVdisorient
p370
aVdisorientate
p371
aVdisoriented
p372
aVdispirit
p373
aVdispirited
p374
aVdisquieted
p375
aVdistant
p376
aVdistraught
p377
aVdistressed
p378
aVdistressing
p379
aVdisturb
p380
aVdisturbed
p381
aVdo_drugs
p382
aVdog-tired
p383
aVdoleful
p384
aVdose
p385
aVdown
p386
aVdown_in_the_mouth
p387
aVdowncast
p388
aVdownhearted
p389
aVdownright
p390
aVdreamy
p391
aVdriven
p392
aVdriving
p393
aVdrooping
p394
aVdrug
p395
aVdry-cleaned
p396
aVduck_soup
p397
aVdull
p398
aVdummy
p399
aVdying
p400
aVdynamic
p401
aVdyspneal
p402
aVdyspneic
p403
aVdyspnoeal
p404
aVdyspnoeic
p405
aVeager
p406
aVearmark
p407
aVeasy
p408
aVeat
p409
aVeat_on
p410
aVeat_up
p411
aVeating
p412
aVeccentric
p413
aVeccentric_person
p414
aVeclectic
p415
aVeclecticist
p416
aVeconomical
p417
aVedgy
p418
aVeducated
p419
aVeerie
p420
aVefficient
p421
aVegotistic
p422
aVegotistical
p423
aVelastic
p424
aVelectric
p425
aVemotional
p426
aVempathetic
p427
aVempathic
p428
aVempty
p429
aVencroaching
p430
aVenergetic
p431
aVenergise
p432
aVenergize
p433
aVengineer
p434
aVensnare
p435
aVenterprising
p436
aVentrap
p437
aVequitable
p438
aVerogenous
p439
aVerudite
p440
aVeruptive
p441
aVestablish
p442
aVestablished
p443
aVesurient
p444
aVevaporable
p445
aVevil
p446
aVexcitable
p447
aVexcite
p448
aVexcited
p449
aVexciting
p450
aVexcogitative
p451
aVexhaust
p452
aVexhausted
p453
aVexistent
p454
aVexotic
p455
aVexpansive
p456
aVexpeditious
p457
aVexplosive
p458
aVexposed
p459
aVexpressive
p460
aVexquisite
p461
aVextreme
p462
aVfabian
p463
aVfag
p464
aVfag_out
p465
aVfagged
p466
aVfaint
p467
aVfair
p468
aVfairly
p469
aVfallible
p470
aVfamish
p471
aVfamished
p472
aVfanciful
p473
aVfashionable
p474
aVfast
p475
aVfast-growing
p476
aVfastidious
p477
aVfat
p478
aVfateful
p479
aVfatigue
p480
aVfatigued
p481
aVfavorite
p482
aVfecund
p483
aVfeeble
p484
aVfeed
p485
aVfeeding
p486
aVfelicitous
p487
aVfertile
p488
aVfevered
p489
aVfeverish
p490
aVfickle
p491
aVfictive
p492
aVfierce
p493
aVfight
p494
aVfighting
p495
aVfinable
p496
aVfind
p497
aVfind_out
p498
aVfishy
p499
aVfix
p500
aVflake
p501
aVflakey
p502
aVflaky
p503
aVflighty
p504
aVflimsy
p505
aVfoible
p506
aVfoment
p507
aVfootsore
p508
aVforeign
p509
aVforeign-born
p510
aVforgetful
p511
aVforlorn
p512
aVform
p513
aVformal
p514
aVfortunate
p515
aVfound
p516
aVfractious
p517
aVfrail
p518
aVfrantic
p519
aVfreakish
p520
aVfreaky
p521
aVfresh
p522
aVfriendly
p523
aVfright
p524
aVfrighten
p525
aVfrighten_away
p526
aVfrighten_off
p527
aVfrightened
p528
aVfrugal
p529
aVfruitful
p530
aVfunctional
p531
aVfunky
p532
aVfunny
p533
aVfunny_remark
p534
aVfunny_story
p535
aVfur-bearing
p536
aVfutureless
p537
aVfuzzy
p538
aVgabby
p539
aVgarrulous
p540
aVgeek
p541
aVgenerative
p542
aVgenuine
p543
aVget_down
p544
aVget_up
p545
aVgingerly
p546
aVgive
p547
aVglad
p548
aVglib
p549
aVgloomy
p550
aVgoing
p551
aVgolden
p552
aVgonzo
p553
aVgood
p554
aVgood-for-nothing
p555
aVgood-hearted
p556
aVgood_story
p557
aVgothic
p558
aVgrandiose
p559
aVgregarious
p560
aVgrim
p561
aVground
p562
aVguarded
p563
aVguide
p564
aVguilt-ridden
p565
aVguilty
p566
aVgumptious
p567
aVhackneyed
p568
aVhalal
p569
aVhallucinate
p570
aVhands-on
p571
aVhangdog
p572
aVhaphazard
p573
aVhappy
p574
aVhard
p575
aVhard-hitting
p576
aVhard-nosed
p577
aVhardheaded
p578
aVhardworking
p579
aVharmonic
p580
aVharmonious
p581
aVhead
p582
aVhead-on
p583
aVhear
p584
aVhearing
p585
aVheart-to-heart
p586
aVheartbroken
p587
aVheartsick
p588
aVheavyhearted
p589
aVheed
p590
aVheedful
p591
aVheedless
p592
aVhelpless
p593
aVhep
p594
aVhet_up
p595
aVhifalutin
p596
aVhigh-energy
p597
aVhighfalutin
p598
aVhighfaluting
p599
aVhighly_sensitive
p600
aVhoity-toity
p601
aVhold
p602
aVhonest
p603
aVhonorable
p604
aVhopeless
p605
aVhorned
p606
aVhornlike
p607
aVhorny
p608
aVhospitable
p609
aVhostile
p610
aVhot
p611
aVhot-blooded
p612
aVhotheaded
p613
aVhouseclean
p614
aVhuffy
p615
aVhuman
p616
aVhumorous
p617
aVhunger
p618
aVhungry
p619
aVhyperactive
p620
aVhypercritical
p621
aVhysterical
p622
aVidiosyncrasy
p623
aVill
p624
aVill-natured
p625
aVimaginative
p626
aVimbecile
p627
aVimmaculate
p628
aVimmediate
p629
aVimmobilise
p630
aVimmobilize
p631
aVimpatient
p632
aVimperfect
p633
aVimpetuous
p634
aVimported
p635
aVimpossible
p636
aVimpressive
p637
aVimpulsive
p638
aVin-your-face
p639
aVinanimate
p640
aVinarticulate
p641
aVinattentive
p642
aVincautious
p643
aVincite
p644
aVincoherent
p645
aVinconstant
p646
aVincorrupt
p647
aVindefatigable
p648
aVindependent
p649
aVindifferent
p650
aVindiscreet
p651
aVindispensable
p652
aVindividual
p653
aVindividualist
p654
aVindividualistic
p655
aVindrawn
p656
aVindustrious
p657
aVinfirm
p658
aVinfluence
p659
aVinform
p660
aVinformed
p661
aVingenious
p662
aVingenuous
p663
aVinhospitable
p664
aVinquisitive
p665
aVinsane
p666
aVinsensible
p667
aVinsensitive
p668
aVinsightful
p669
aVinsoluble
p670
aVinspire
p671
aVinstigate
p672
aVinsufficient
p673
aVintelligent
p674
aVintended
p675
aVintense
p676
aVintensified
p677
aVintensive
p678
aVinterest
p679
aVinterested
p680
aVinterfaith
p681
aVinterfering
p682
aVintermediate
p683
aVinteroperable
p684
aVinterpersonal
p685
aVintoxicated
p686
aVintruding
p687
aVintrusive
p688
aVintuitive
p689
aVinvasive
p690
aVinventive
p691
aVinvolved
p692
aVirreconcilable
p693
aVirrelevant
p694
aVirritable
p695
aVirruptive
p696
aVisotonic
p697
aViterative
p698
aVjade
p699
aVjaded
p700
aVjerry-built
p701
aVjoint
p702
aVjolted
p703
aVkind
p704
aVkindly
p705
aVknackered
p706
aVknowing
p707
aVknowledgeable
p708
aVkosher
p709
aVla-di-da
p710
aVlabile
p711
aVlacuna
p712
aVlaid-back
p713
aVlaissez-faire
p714
aVlame
p715
aVlamentable
p716
aVlarge-hearted
p717
aVlaughable
p718
aVlaughing
p719
aVlaw-abiding
p720
aVlawful
p721
aVlead
p722
aVlearn
p723
aVlegible
p724
aVlegitimate
p725
aVlesson
p726
aVlethargic
p727
aVliable
p728
aVlight
p729
aVlight-sensitive
p730
aVlikable
p731
aVlikeable
p732
aVlimit
p733
aVlisten
p734
aVlistening
p735
aVlistless
p736
aVlittle
p737
aVlive
p738
aVlively
p739
aVlogical
p740
aVlone
p741
aVlonely
p742
aVlonesome
p743
aVloose
p744
aVloosen
p745
aVloosen_up
p746
aVloquacious
p747
aVlost
p748
aVlow
p749
aVlow-spirited
p750
aVlower
p751
aVlucid
p752
aVlyric
p753
aVmachinate
p754
aVmad
p755
aVmadcap
p756
aVmain
p757
aVmake_clean
p758
aVmake_relaxed
p759
aVmake_up_one's_mind
p760
aVmanageable
p761
aVmaneuver
p762
aVmanky
p763
aVmannerism
p764
aVmanoeuver
p765
aVmanoeuvre
p766
aVmanque
p767
aVmark
p768
aVmastermind
p769
aVmatter-of-fact
p770
aVmean
p771
aVmeasured
p772
aVmedian
p773
aVmediocre
p774
aVmeditative
p775
aVmedium
p776
aVmelancholy
p777
aVmental
p778
aVmental_object
p779
aVmentally_retarded
p780
aVmessage
p781
aVmethodical
p782
aVmeticulous
p783
aVmiddling
p784
aVmind
p785
aVmind-blowing
p786
aVmindful
p787
aVmindless
p788
aVminute
p789
aVmirthful
p790
aVmisapprehend
p791
aVmisconceive
p792
aVmisconstrue
p793
aVmisinterpret
p794
aVmisleading
p795
aVmisunderstand
p796
aVmisunderstood
p797
aVmixer
p798
aVmodal
p799
aVmoderate
p800
aVmold
p801
aVmoody
p802
aVmoot
p803
aVmoral
p804
aVmoralistic
p805
aVmorbid
p806
aVmoronic
p807
aVmotivate
p808
aVmove
p809
aVmoving
p810
aVmultiethnic
p811
aVmusing
p812
aVnaked
p813
aVnamby-pamby
p814
aVnarcissistic
p815
aVnatural
p816
aVnauseate
p817
aVnauseated
p818
aVnauseous
p819
aVneat
p820
aVnegligible
p821
aVnerveless
p822
aVnervous
p823
aVnettlesome
p824
aVneural
p825
aVneurotic
p826
aVnociceptive
p827
aVnocturnal
p828
aVnoisy
p829
aVnonclassical
p830
aVnoncompetitive
p831
aVnonconcentric
p832
aVnonnative
p833
aVnonunion
p834
aVnorm
p835
aVnormal
p836
aVnosy
p837
aVnugatory
p838
aVnumb
p839
aVnut-bearing
p840
aVobjectify
p841
aVoblivious
p842
aVobservant
p843
aVobsessive-compulsive
p844
aVobstreperous
p845
aVoccupy
p846
aVodd
p847
aVoddball
p848
aVoddish
p849
aVoff-center
p850
aVoff-the-wall
p851
aVoffhand
p852
aVoil-bearing
p853
aVold-hat
p854
aVon_the_go
p855
aVopen
p856
aVopen_air
p857
aVopen_up
p858
aVopened
p859
aVopenhearted
p860
aVoperable
p861
aVoperational
p862
aVopponent
p863
aVoptimistic
p864
aVorchestrate
p865
aVordered
p866
aVordinary
p867
aVorganise
p868
aVorganised
p869
aVorganize
p870
aVorganized
p871
aVoriented
p872
aVoriginative
p873
aVother
p874
aVotiose
p875
aVout-of-doors
p876
aVoutdoors
p877
aVoutlandish
p878
aVoutre
p879
aVoutwear
p880
aVoveractive
p881
aVoverambitious
p882
aVovercareful
p883
aVovercautious
p884
aVovercurious
p885
aVoveremotional
p886
aVoverexcited
p887
aVoversensitive
p888
aVoverstrung
p889
aVovert
p890
aVoxidizable
p891
aVpainful
p892
aVpale
p893
aVpall
p894
aVparanoiac
p895
aVparanoid
p896
aVparticipating
p897
aVparticular
p898
aVpathologic
p899
aVpathological
p900
aVpaying_attention
p901
aVpeckish
p902
aVpeculiar
p903
aVpeevish
p904
aVpensive
p905
aVperceptible
p906
aVperceptive
p907
aVperemptory
p908
aVperfect
p909
aVpersuasive
p910
aVpettish
p911
aVpetulant
p912
aVphysical
p913
aVpick
p914
aVpicnic
p915
aVpiece_of_cake
p916
aVpin
p917
aVpin_down
p918
aVpit
p919
aVpitiful
p920
aVplace
p921
aVplan
p922
aVplanning
p923
aVplay_out
p924
aVplayed_out
p925
aVplum
p926
aVplumb
p927
aVpock
p928
aVpoint
p929
aVpondering
p930
aVpop
p931
aVpopular
p932
aVpose
p933
aVpositive
p934
aVpowerless
p935
aVpractical
p936
aVpragmatic
p937
aVprecise
p938
aVpredatory
p939
aVpreparation
p940
aVprepare
p941
aVpress
p942
aVpress_down
p943
aVpretentious
p944
aVprime
p945
aVprinciple
p946
aVpristine
p947
aVprivy
p948
aVproactive
p949
aVproductive
p950
aVprofound
p951
aVprogressive
p952
aVproject
p953
aVprompt
p954
aVprompting
p955
aVpropel
p956
aVprotective
p957
aVprovident
p958
aVprovision
p959
aVpsychedelic
p960
aVpublic
p961
aVpugnacious
p962
aVpulseless
p963
aVpumped-up
p964
aVpunctilious
p965
aVpunctual
p966
aVpunishable
p967
aVpuny
p968
aVpure
p969
aVpush
p970
aVpushful
p971
aVpushover
p972
aVquaint
p973
aVqueasy
p974
aVqueer
p975
aVquestionable
p976
aVquick
p977
aVquick-witted
p978
aVradiosensitive
p979
aVragged
p980
aVraging
p981
aVraise_up
p982
aVrandy
p983
aVraring
p984
aVratiocinative
p985
aVrational
p986
aVrationale
p987
aVravenous
p988
aVraw
p989
aVre-formed
p990
aVreactive
p991
aVready
p992
aVrealistic
p993
aVreceptive
p994
aVred-handed
p995
aVreflective
p996
aVregardless
p997
aVregular
p998
aVregulate
p999
aVrelax
p1000
aVrelaxed
p1001
aVreliable
p1002
aVreligious
p1003
aVremind
p1004
aVreorganized
p1005
aVrepetitious
p1006
aVrepetitive
p1007
aVreserve
p1008
aVreserved
p1009
aVresilient
p1010
aVresolute
p1011
aVresponsible
p1012
aVresponsible_for
p1013
aVresponsive
p1014
aVrestive
p1015
aVrestless
p1016
aVretard
p1017
aVretarded
p1018
aVrevolt
p1019
aVrich
p1020
aVrickety
p1021
aVrighteous
p1022
aVrippled
p1023
aVrisible
p1024
aVrose-colored
p1025
aVrouse
p1026
aVrubbishy
p1027
aVrum
p1028
aVruminative
p1029
aVrummy
p1030
aVrun_aground
p1031
aVrun_down
p1032
aVrun_through
p1033
aVrust
p1034
aVruttish
p1035
aVsacred
p1036
aVsad
p1037
aVsanguine
p1038
aVsap
p1039
aVsapless
p1040
aVsatisfied
p1041
aVsaturated
p1042
aVscar
p1043
aVscare
p1044
aVscare_away
p1045
aVscare_off
p1046
aVscared
p1047
aVscathing
p1048
aVscavenge
p1049
aVscholarly
p1050
aVscotch
p1051
aVscrappy
p1052
aVscratchy
p1053
aVscreaming
p1054
aVscrubbed
p1055
aVscrupulous
p1056
aVseamless
p1057
aVsearing
p1058
aVsee
p1059
aVseething
p1060
aVself-assured
p1061
aVself-confident
p1062
aVself-destructive
p1063
aVself-directed
p1064
aVself-generated
p1065
aVself-loving
p1066
aVself-reliant
p1067
aVselfish
p1068
aVsend
p1069
aVsensible
p1070
aVsensitive
p1071
aVserious
p1072
aVserious-minded
p1073
aVserviceable
p1074
aVset
p1075
aVset_aside
p1076
aVsettle
p1077
aVsettled
p1078
aVsevere
p1079
aVsex
p1080
aVsexy
p1081
aVshady
p1082
aVshake
p1083
aVshake_up
p1084
aVshamed
p1085
aVshamefaced
p1086
aVshape
p1087
aVsharp
p1088
aVsharp-set
p1089
aVshift
p1090
aVshoddy
p1091
aVshopworn
p1092
aVshort
p1093
aVshy
p1094
aVsick
p1095
aVsicken
p1096
aVsickish
p1097
aVsimilar
p1098
aVsincere
p1099
aVsingular
p1100
aVskittish
p1101
aVslack
p1102
aVslack_up
p1103
aVslacken
p1104
aVsleepy
p1105
aVsleepy-eyed
p1106
aVsleepyheaded
p1107
aVslimy
p1108
aVslow
p1109
aVslow_down
p1110
aVslow_up
p1111
aVsmart
p1112
aVsmothering
p1113
aVsmug
p1114
aVsnap
p1115
aVsnare
p1116
aVsociable
p1117
aVsocial
p1118
aVsocietal
p1119
aVsolitary
p1120
aVsore
p1121
aVsorrowful
p1122
aVsorry
p1123
aVsoulful
p1124
aVspace
p1125
aVsparing
p1126
aVspecify
p1127
aVspent
p1128
aVspirited
p1129
aVspiritless
p1130
aVspiritual
p1131
aVspiritualist
p1132
aVspontaneous
p1133
aVspooky
p1134
aVsporting
p1135
aVsportsmanlike
p1136
aVsporty
p1137
aVspread
p1138
aVspread_out
p1139
aVspringy
p1140
aVsquare_off
p1141
aVsquare_up
p1142
aVstarry-eyed
p1143
aVstarve
p1144
aVstarved
p1145
aVsteamy
p1146
aVsteer
p1147
aVstimulate
p1148
aVstimulated
p1149
aVstinting
p1150
aVstir
p1151
aVstir_up
p1152
aVstirred
p1153
aVstock
p1154
aVstraightaway
p1155
aVstrain
p1156
aVstrained
p1157
aVstrand
p1158
aVstrange
p1159
aVstrenuous
p1160
aVstrip
p1161
aVstrong
p1162
aVstrong-growing
p1163
aVstubborn
p1164
aVstudious
p1165
aVstupid
p1166
aVsubject
p1167
aVsubject_matter
p1168
aVsubstance
p1169
aVsuccessful
p1170
aVsuicidal
p1171
aVsupercritical
p1172
aVsurface
p1173
aVsurface-active
p1174
aVsusceptible
p1175
aVsuspect
p1176
aVsuspicious
p1177
aVswaggering
p1178
aVsympathetic
p1179
aVsynergetic
p1180
aVtake
p1181
aVtake_aim
p1182
aVtake_heed
p1183
aVtalkative
p1184
aVtalky
p1185
aVtangential
p1186
aVtarget
p1187
aVtaut
p1188
aVtearaway
p1189
aVteased
p1190
aVtechy
p1191
aVtender
p1192
aVtense
p1193
aVtense_up
p1194
aVterrific
p1195
aVtesty
p1196
aVtetchy
p1197
aVthermolabile
p1198
aVthick
p1199
aVthin
p1200
aVthorough
p1201
aVthoughtful
p1202
aVthreadbare
p1203
aVthrifty
p1204
aVthrilled
p1205
aVthrillful
p1206
aVtimeworn
p1207
aVtimid
p1208
aVtinpot
p1209
aVtire
p1210
aVtire_out
p1211
aVtired
p1212
aVtireless
p1213
aVtongue-tied
p1214
aVtouristed
p1215
aVtragic
p1216
aVtragicomic
p1217
aVtrain
p1218
aVtrammel
p1219
aVtramontane
p1220
aVtrap
p1221
aVtrapped
p1222
aVtravel-worn
p1223
aVtreed
p1224
aVtrite
p1225
aVtroubled
p1226
aVtruculent
p1227
aVtrue
p1228
aVtrustworthy
p1229
aVtruthful
p1230
aVturn_on
p1231
aVturn_one's_stomach
p1232
aVturn_over
p1233
aVturned_on
p1234
aVtype
p1235
aVugly
p1236
aVunabated
p1237
aVunaccented
p1238
aVunaccompanied
p1239
aVunaddicted
p1240
aVunarmed
p1241
aVunbend
p1242
aVunclouded
p1243
aVuncommunicative
p1244
aVuncongenial
p1245
aVunconstricted
p1246
aVuncontaminating
p1247
aVunconventional
p1248
aVundecided
p1249
aVundefendable
p1250
aVundefended
p1251
aVundercoat
p1252
aVundetermined
p1253
aVundisguised
p1254
aVuneasy
p1255
aVunenclosed
p1256
aVunenrgetic
p1257
aVunfamiliar
p1258
aVunfastened
p1259
aVunfold
p1260
aVunforbearing
p1261
aVunfree
p1262
aVunfrequented
p1263
aVunfriendly
p1264
aVungratified
p1265
aVunhealthy
p1266
aVunhesitating
p1267
aVunhurried
p1268
aVunimaginative
p1269
aVuninfected
p1270
aVuninhabited
p1271
aVuninterested
p1272
aVunion
p1273
aVunionise
p1274
aVunionised
p1275
aVunionize
p1276
aVunionized
p1277
aVunknown
p1278
aVunlax
p1279
aVunloaded
p1280
aVunmindful
p1281
aVunnaturalized
p1282
aVunobjectionable
p1283
aVunobstructed
p1284
aVunoriented
p1285
aVunoriginal
p1286
aVunpleasant
p1287
aVunpredictable
p1288
aVunpremeditated
p1289
aVunpretentious
p1290
aVunprompted
p1291
aVunprotected
p1292
aVunqualified
p1293
aVunquiet
p1294
aVunreal
p1295
aVunrefreshed
p1296
aVunrelaxed
p1297
aVunresolved
p1298
aVunrestrained
p1299
aVunrestricted
p1300
aVunretentive
p1301
aVunsatisfied
p1302
aVunscripted
p1303
aVunsealed
p1304
aVunsettled
p1305
aVunskilled
p1306
aVunsocial
p1307
aVunsoiled
p1308
aVunstable
p1309
aVunstoppered
p1310
aVunstrain
p1311
aVunstrained
p1312
aVunstressed
p1313
aVunsullied
p1314
aVunsure
p1315
aVuntiring
p1316
aVununderstood
p1317
aVunusual
p1318
aVunwind
p1319
aVunworthy
p1320
aVunwritten
p1321
aVup-and-coming
p1322
aVupset
p1323
aVupstage
p1324
aVuse_up
p1325
aVvacuous
p1326
aVvalid
p1327
aVvalueless
p1328
aVvex
p1329
aVvigorous
p1330
aVvile
p1331
aVviolent
p1332
aVvirtual
p1333
aVvisible
p1334
aVvital
p1335
aVvivid
p1336
aVvolatile
p1337
aVvoluble
p1338
aVvulnerable
p1339
aVwalkover
p1340
aVwarm-toned
p1341
aVwary
p1342
aVwashed
p1343
aVwashed-out
p1344
aVwashy
p1345
aVwatch
p1346
aVwatery
p1347
aVweak
p1348
aVweakened
p1349
aVweakly
p1350
aVwear
p1351
aVwear_down
p1352
aVwear_out
p1353
aVwear_upon
p1354
aVweary
p1355
aVweird
p1356
aVwell-chosen
p1357
aVwell-conducted
p1358
aVwell-read
p1359
aVwell-worn
p1360
aVwell_thought_out
p1361
aVwhacked
p1362
aVwhimsical
p1363
aVwhite
p1364
aVwide-eyed
p1365
aVwide-open
p1366
aVwild
p1367
aVwild-eyed
p1368
aVwilling
p1369
aVwind_up
p1370
aVwipe_out
p1371
aVworked_up
p1372
aVworking
p1373
aVworn-out
p1374
aVworn_out
p1375
aVworried
p1376
aVworry
p1377
aVworthless
p1378
aVwretched
p1379
aVyawning
p1380
aVyeasty
p1381
a.