(lp0
Vabash
p1
aVabashed
p2
aVabject
p3
aVabout
p4
aVabreast
p5
aVacademic
p6
aVacceptive
p7
aVaccommodative
p8
aVaccordant
p9
aVaccountable
p10
aVacentric
p11
aVacrobatic
p12
aVact
p13
aVactivated
p14
aVactive
p15
aVactive_agent
p16
aVactive_voice
p17
aVactivist
p18
aVactuate
p19
aVacute
p20
aVad-lib
p21
aVaddress
p22
aVadmissive
p23
aVadroit
p24
aVadventive
p25
aVadventuresome
p26
aVadventurous
p27
aVadvised
p28
aVadynamic
p29
aVaffectation
p30
aVaffectedness
p31
aVaffectional
p32
aVaffirmative
p33
aVafflictive
p34
aVafford
p35
aVaffright
p36
aVaflutter
p37
aVafraid
p38
aVagape
p39
aVagaze
p40
aVaggravated
p41
aVaggressive
p42
aVagile
p43
aVagitate
p44
aVagitated
p45
aVagog
p46
aVagreeable
p47
aVaim
p48
aVajar
p49
aValert
p50
aValien
p51
aValienated
p52
aValive
p53
aVall_in
p54
aVallow
p55
aValone
p56
aValoof
p57
aVambitious
p58
aVamenable
p59
aVamentiferous
p60
aVamnesic
p61
aVamusing
p62
aVanchor
p63
aVanemic
p64
aVangry
p65
aVanhedonia
p66
aVanicteric
p67
aVanomic
p68
aVanswerable
p69
aVanswering
p70
aVantagonistic
p71
aVantic
p72
aVantiphonal
p73
aVantiseptic
p74
aVantsy
p75
aVanxious
p76
aVapathetic
p77
aVappealing
p78
aVapplicative
p79
aVapplied
p80
aVappraising
p81
aVapprehensive
p82
aVappropriate
p83
aVapt
p84
aVarable
p85
aVarbitrary
p86
aVarouse
p87
aVaroused
p88
aVarranged
p89
aVartless
p90
aVascertain
p91
aVascertained
p92
aVashamed
p93
aVasleep
p94
aVasphyxiating
p95
aVaspirant
p96
aVassailable
p97
aVassimilative
p98
aVat_bay
p99
aVat_fault
p100
aVat_loggerheads
p101
aVattentive
p102
aVaudacious
p103
aVautonomous
p104
aVavailable
p105
aVaverage
p106
aVaverage_out
p107
aVaweary
p108
aVbackward
p109
aVbad
p110
aVbald
p111
aVbanal
p112
aVbase
p113
aVbathetic
p114
aVbattleful
p115
aVbe_after
p116
aVbe_amiss
p117
aVbelligerent
p118
aVbemused
p119
aVbenevolent
p120
aVbenumb
p121
aVbenumbed
p122
aVbest-selling
p123
aVbigmouthed
p124
aVbind
p125
aVbit
p126
aVbitter
p127
aVbittersweet
p128
aVbizarre
p129
aVblabbermouthed
p130
aVblabby
p131
aVblack
p132
aVblameworthy
p133
aVblank
p134
aVblank_shell
p135
aVbleary
p136
aVblessed
p137
aVblissful
p138
aVblock
p139
aVblockade
p140
aVblood-and-guts
p141
aVbloodguilty
p142
aVblow-by-blow
p143
aVblown
p144
aVblue
p145
aVblunt
p146
aVbook
p147
aVbookable
p148
aVbooked
p149
aVbookish
p150
aVbore
p151
aVbored
p152
aVbouncing
p153
aVbouncy
p154
aVbound
p155
aVbrainish
p156
aVbreathless
p157
aVbreathtaking
p158
aVbreeze
p159
aVbright
p160
aVbrisk
p161
aVbrokenhearted
p162
aVbrooding
p163
aVbroody
p164
aVbrutal
p165
aVbudge
p166
aVbullish
p167
aVburned-out
p168
aVbustling
p169
aVbusy
p170
aVcagey
p171
aVcagy
p172
aVcalculate
p173
aVcalculated
p174
aVcampaign
p175
aVcandid
p176
aVcanny
p177
aVcanty
p178
aVcapable
p179
aVcapacity
p180
aVcapitalistic
p181
aVcapricious
p182
aVcaptious
p183
aVcare
p184
aVcareful
p185
aVcareless
p186
aVcareworn
p187
aVcase
p188
aVcast_down
p189
aVcasual
p190
aVcathartic
p191
aVcausative
p192
aVcautious
p193
aVcensorious
p194
aVcertain
p195
aVchaffy
p196
aVchagrined
p197
aVchallenging
p198
aVchangeable
p199
aVchannelise
p200
aVchannelize
p201
aVcharacter
p202
aVcharge
p203
aVcharge_up
p204
aVchargeable
p205
aVcharged
p206
aVcharitable
p207
aVchaste
p208
aVchatty
p209
aVcheck
p210
aVcheerful
p211
aVchild's_play
p212
aVchurchgoing
p213
aVchurchly
p214
aVchurn_up
p215
aVchurning
p216
aVcinch
p217
aVclang
p218
aVclanging
p219
aVclangor
p220
aVclangorous
p221
aVclassified
p222
aVclean
p223
aVclean-living
p224
aVclean_and_jerk
p225
aVclean_house
p226
aVcleanable
p227
aVcleanly
p228
aVcleanse
p229
aVclear
p230
aVclever
p231
aVcliff-hanging
p232
aVclog
p233
aVclose
p234
aVco-op
p235
aVcoarse
p236
aVcoaxing
p237
aVcogent
p238
aVcogitative
p239
aVcognitive_content
p240
aVcoherent
p241
aVcold
p242
aVcollaborative
p243
aVcombat-ready
p244
aVcomic
p245
aVcomical
p246
aVcommand_prompt
p247
aVcommiserative
p248
aVcommon
p249
aVcommonplace
p250
aVcommove
p251
aVcommunicative
p252
aVcompelling
p253
aVcompetitive
p254
aVcomplacent
p255
aVcomplete
p256
aVcompulsive
p257
aVconcentrated
p258
aVconcern
p259
aVconcerted
p260
aVconcordant
p261
aVcondolent
p262
aVconduct
p263
aVconfident
p264
aVconfigured
p265
aVconformable
p266
aVconfused
p267
aVconjunct
p268
aVconjunctive
p269
aVconscience-smitten
p270
aVconscientious
p271
aVconservative
p272
aVconsider
p273
aVconsiderable
p274
aVconsiderate
p275
aVconsistent
p276
aVconsonant
p277
aVconstipate
p278
aVconstipated
p279
aVconstricted
p280
aVconstructive
p281
aVconsume
p282
aVconsuming
p283
aVcontemplative
p284
aVcontent
p285
aVcontented
p286
aVcontentedness
p287
aVcontrive
p288
aVconversant
p289
aVcooperative
p290
aVcoordinate
p291
aVcorneous
p292
aVcornered
p293
aVcorporate
p294
aVcorrode
p295
aVcounteractive
p296
aVcranky
p297
aVcrazy
p298
aVcreative
p299
aVcreditworthy
p300
aVcretinous
p301
aVcriminal
p302
aVcritical
p303
aVcrucial
p304
aVcrusade
p305
aVcue
p306
aVcultural
p307
aVcunning
p308
aVcurious
p309
aVdangerous
p310
aVdash
p311
aVdaunt
p312
aVdazed
p313
aVdead
p314
aVdebate
p315
aVdebile
p316
aVdecelerate
p317
aVdeceptive
p318
aVdecide
p319
aVdeciding
p320
aVdecisive
p321
aVdecompress
p322
aVdecrepit
p323
aVdeep
p324
aVdefine
p325
aVdefinite
p326
aVdegage
p327
aVdeject
p328
aVdejected
p329
aVdelay
p330
aVdelayed
p331
aVdeliberate
p332
aVdeliberative
p333
aVdelicate
p334
aVdelinquent
p335
aVdelirious
p336
aVdelusional
p337
aVdelusory
p338
aVdemocratic
p339
aVdemoralise
p340
aVdemoralize
p341
aVdependable
p342
aVdepersonalise
p343
aVdepersonalize
p344
aVdepicted_object
p345
aVdeplete
p346
aVdeplorable
p347
aVdeprecative
p348
aVdepress
p349
aVdepressed
p350
aVdesign
p351
aVdespairing
p352
aVdesperate
p353
aVdespicable
p354
aVdespondent
p355
aVdetailed
p356
aVdetermine
p357
aVdetermined
p358
aVdevelopmentally_challenged
p359
aVdevise
p360
aVdevout
p361
aVdianoetic
p362
aVdictated
p363
aVdifficult
p364
aVdiffident
p365
aVdigressive
p366
aVdiligent
p367
aVdiluted
p368
aVdim-witted
p369
aVdirect
p370
aVdirected
p371
aVdirty
p372
aVdiscomposed
p373
aVdiscontented
p374
aVdiscriminating
p375
aVdiscriminative
p376
aVdiseased
p377
aVdisgust
p378
aVdishonest
p379
aVdismay
p380
aVdisorient
p381
aVdisorientate
p382
aVdisoriented
p383
aVdispirit
p384
aVdispirited
p385
aVdisquieted
p386
aVdistant
p387
aVdistraught
p388
aVdistressed
p389
aVdistressing
p390
aVdisturb
p391
aVdisturbed
p392
aVdo_drugs
p393
aVdog-tired
p394
aVdoleful
p395
aVdose
p396
aVdown
p397
aVdown_in_the_mouth
p398
aVdowncast
p399
aVdownhearted
p400
aVdownright
p401
aVdreamy
p402
aVdriven
p403
aVdriving
p404
aVdrooping
p405
aVdrug
p406
aVdry-cleaned
p407
aVduck_soup
p408
aVdull
p409
aVdummy
p410
aVdying
p411
aVdynamic
p412
aVdyspneal
p413
aVdyspneic
p414
aVdyspnoeal
p415
aVdyspnoeic
p416
aVeager
p417
aVearmark
p418
aVeasy
p419
aVeat
p420
aVeat_on
p421
aVeat_up
p422
aVeating
p423
aVeccentric
p424
aVeccentric_person
p425
aVeclectic
p426
aVeclecticist
p427
aVeconomical
p428
aVedgy
p429
aVeducated
p430
aVeerie
p431
aVefficient
p432
aVegotistic
p433
aVegotistical
p434
aVelastic
p435
aVelectric
p436
aVembarrass
p437
aVembarrassed
p438
aVemotional
p439
aVempathetic
p440
aVempathic
p441
aVempty
p442
aVencroaching
p443
aVenergetic
p444
aVenergise
p445
aVenergize
p446
aVengineer
p447
aVensnare
p448
aVenterprising
p449
aVentrap
p450
aVequitable
p451
aVerogenous
p452
aVerudite
p453
aVeruptive
p454
aVestablish
p455
aVestablished
p456
aVesurient
p457
aVevaporable
p458
aVeveryday
p459
aVevil
p460
aVexcitable
p461
aVexcite
p462
aVexcited
p463
aVexciting
p464
aVexcogitative
p465
aVexhaust
p466
aVexhausted
p467
aVexistent
p468
aVexotic
p469
aVexpansive
p470
aVexpeditious
p471
aVexplosive
p472
aVexposed
p473
aVexpressive
p474
aVexquisite
p475
aVextreme
p476
aVfabian
p477
aVfag
p478
aVfag_out
p479
aVfagged
p480
aVfaint
p481
aVfair
p482
aVfairly
p483
aVfallible
p484
aVfamish
p485
aVfamished
p486
aVfanciful
p487
aVfashionable
p488
aVfast
p489
aVfast-growing
p490
aVfastidious
p491
aVfat
p492
aVfateful
p493
aVfatigue
p494
aVfatigued
p495
aVfavorite
p496
aVfecund
p497
aVfeeble
p498
aVfeed
p499
aVfeeding
p500
aVfelicitous
p501
aVfertile
p502
aVfevered
p503
aVfeverish
p504
aVfickle
p505
aVfictive
p506
aVfierce
p507
aVfight
p508
aVfighting
p509
aVfinable
p510
aVfind
p511
aVfind_out
p512
aVfirm
p513
aVfishy
p514
aVfix
p515
aVflake
p516
aVflakey
p517
aVflaky
p518
aVflighty
p519
aVflimsy
p520
aVflushed
p521
aVfoible
p522
aVfoment
p523
aVfootsore
p524
aVforeign
p525
aVforeign-born
p526
aVforgetful
p527
aVforlorn
p528
aVform
p529
aVformal
p530
aVfortunate
p531
aVfound
p532
aVfractious
p533
aVfrail
p534
aVfrantic
p535
aVfreakish
p536
aVfreaky
p537
aVfresh
p538
aVfriendly
p539
aVfright
p540
aVfrighten
p541
aVfrighten_away
p542
aVfrighten_off
p543
aVfrightened
p544
aVfrugal
p545
aVfruitful
p546
aVfunction
p547
aVfunctional
p548
aVfunky
p549
aVfunny
p550
aVfunny_remark
p551
aVfunny_story
p552
aVfur-bearing
p553
aVfutureless
p554
aVfuzzy
p555
aVgabby
p556
aVgarrulous
p557
aVgeek
p558
aVgenerative
p559
aVgenuine
p560
aVget_down
p561
aVget_up
p562
aVgingerly
p563
aVgive
p564
aVglad
p565
aVglib
p566
aVgloomy
p567
aVgoing
p568
aVgolden
p569
aVgonzo
p570
aVgood
p571
aVgood-for-nothing
p572
aVgood-hearted
p573
aVgood_for_you
p574
aVgood_story
p575
aVgoodish
p576
aVgoodly
p577
aVgothic
p578
aVgrandiose
p579
aVgregarious
p580
aVgrim
p581
aVground
p582
aVguarded
p583
aVguide
p584
aVguilt-ridden
p585
aVguilty
p586
aVgumptious
p587
aVhackneyed
p588
aVhalal
p589
aVhale
p590
aVhallucinate
p591
aVhands-on
p592
aVhangdog
p593
aVhaphazard
p594
aVhappy
p595
aVhard
p596
aVhard-hitting
p597
aVhard-nosed
p598
aVhardheaded
p599
aVhardworking
p600
aVharmonic
p601
aVharmonious
p602
aVhead
p603
aVhead-on
p604
aVhealthy
p605
aVhear
p606
aVhearing
p607
aVheart-to-heart
p608
aVheartbroken
p609
aVheartsick
p610
aVhearty
p611
aVheavyhearted
p612
aVheed
p613
aVheedful
p614
aVheedless
p615
aVhefty
p616
aVhelpless
p617
aVhep
p618
aVhet_up
p619
aVhifalutin
p620
aVhigh-energy
p621
aVhighfalutin
p622
aVhighfaluting
p623
aVhighly_sensitive
p624
aVhinder
p625
aVhoity-toity
p626
aVhold
p627
aVhonest
p628
aVhonorable
p629
aVhopeless
p630
aVhorned
p631
aVhornlike
p632
aVhorny
p633
aVhospitable
p634
aVhostile
p635
aVhot
p636
aVhot-blooded
p637
aVhotheaded
p638
aVhouseclean
p639
aVhuffy
p640
aVhuman
p641
aVhumiliated
p642
aVhumorous
p643
aVhunger
p644
aVhungry
p645
aVhyperactive
p646
aVhypercritical
p647
aVhypochondriac
p648
aVhypochondriacal
p649
aVhysterical
p650
aVidiosyncrasy
p651
aVill
p652
aVill-natured
p653
aVimaginative
p654
aVimbecile
p655
aVimmaculate
p656
aVimmediate
p657
aVimmobilise
p658
aVimmobilize
p659
aVimpatient
p660
aVimperfect
p661
aVimpetuous
p662
aVimported
p663
aVimpossible
p664
aVimpressive
p665
aVimpulsive
p666
aVin-your-face
p667
aVinanimate
p668
aVinarticulate
p669
aVinattentive
p670
aVincautious
p671
aVincite
p672
aVincoherent
p673
aVinconstant
p674
aVincorrupt
p675
aVindefatigable
p676
aVindependent
p677
aVindifferent
p678
aVindiscreet
p679
aVindispensable
p680
aVindividual
p681
aVindividualist
p682
aVindividualistic
p683
aVindrawn
p684
aVindustrious
p685
aVinfirm
p686
aVinfluence
p687
aVinform
p688
aVinformed
p689
aVingenious
p690
aVingenuous
p691
aVinhospitable
p692
aVinquisitive
p693
aVinsane
p694
aVinsensible
p695
aVinsensitive
p696
aVinsightful
p697
aVinsoluble
p698
aVinspire
p699
aVinstigate
p700
aVinsufficient
p701
aVintelligent
p702
aVintended
p703
aVintense
p704
aVintensified
p705
aVintensive
p706
aVinterest
p707
aVinterested
p708
aVinterfaith
p709
aVinterfering
p710
aVintermediate
p711
aVinteroperable
p712
aVinterpersonal
p713
aVintoxicated
p714
aVintruding
p715
aVintrusive
p716
aVintuitive
p717
aVinvasive
p718
aVinventive
p719
aVinvincible
p720
aVinvolved
p721
aVirreconcilable
p722
aVirrelevant
p723
aVirritable
p724
aVirruptive
p725
aVisotonic
p726
aViterative
p727
aVjade
p728
aVjaded
p729
aVjerry-built
p730
aVjoint
p731
aVjolted
p732
aVkind
p733
aVkindly
p734
aVknackered
p735
aVknowing
p736
aVknowledgeable
p737
aVkosher
p738
aVla-di-da
p739
aVlabile
p740
aVlacuna
p741
aVlaid-back
p742
aVlaissez-faire
p743
aVlame
p744
aVlamentable
p745
aVlarge-hearted
p746
aVlaughable
p747
aVlaughing
p748
aVlaw-abiding
p749
aVlawful
p750
aVlead
p751
aVlearn
p752
aVlegible
p753
aVlegitimate
p754
aVlesson
p755
aVlethargic
p756
aVlevel-headed
p757
aVlevelheaded
p758
aVliable
p759
aVlight
p760
aVlight-sensitive
p761
aVlikable
p762
aVlikeable
p763
aVlimit
p764
aVlisten
p765
aVlistening
p766
aVlistless
p767
aVlittle
p768
aVlive
p769
aVlively
p770
aVlogical
p771
aVlone
p772
aVlonely
p773
aVlonesome
p774
aVloose
p775
aVloosen
p776
aVloosen_up
p777
aVloquacious
p778
aVlost
p779
aVlow
p780
aVlow-spirited
p781
aVlower
p782
aVlucid
p783
aVlyric
p784
aVmachinate
p785
aVmad
p786
aVmadcap
p787
aVmain
p788
aVmake_clean
p789
aVmake_relaxed
p790
aVmake_up_one's_mind
p791
aVmanageable
p792
aVmaneuver
p793
aVmanky
p794
aVmannerism
p795
aVmanoeuver
p796
aVmanoeuvre
p797
aVmanque
p798
aVmark
p799
aVmastermind
p800
aVmatter-of-fact
p801
aVmean
p802
aVmeasured
p803
aVmedian
p804
aVmediocre
p805
aVmeditative
p806
aVmedium
p807
aVmelancholy
p808
aVmental
p809
aVmental_object
p810
aVmentally_retarded
p811
aVmessage
p812
aVmethodical
p813
aVmeticulous
p814
aVmiddling
p815
aVmind
p816
aVmind-blowing
p817
aVmindful
p818
aVmindless
p819
aVminute
p820
aVmirthful
p821
aVmisapprehend
p822
aVmisconceive
p823
aVmisconstrue
p824
aVmisinterpret
p825
aVmisleading
p826
aVmisunderstand
p827
aVmisunderstood
p828
aVmixer
p829
aVmodal
p830
aVmoderate
p831
aVmodus_operandi
p832
aVmold
p833
aVmoody
p834
aVmoot
p835
aVmoral
p836
aVmoralistic
p837
aVmorbid
p838
aVmoronic
p839
aVmortified
p840
aVmotivate
p841
aVmove
p842
aVmoving
p843
aVmultiethnic
p844
aVmundane
p845
aVmusing
p846
aVnaked
p847
aVnamby-pamby
p848
aVnarcissistic
p849
aVnatural
p850
aVnauseate
p851
aVnauseated
p852
aVnauseous
p853
aVneat
p854
aVnegligible
p855
aVnerveless
p856
aVnervous
p857
aVnettlesome
p858
aVneural
p859
aVneurotic
p860
aVnociceptive
p861
aVnocturnal
p862
aVnoisy
p863
aVnonclassical
p864
aVnoncompetitive
p865
aVnonconcentric
p866
aVnonnative
p867
aVnonunion
p868
aVnorm
p869
aVnormal
p870
aVnosy
p871
aVnugatory
p872
aVnumb
p873
aVnumber
p874
aVnut-bearing
p875
aVobjectify
p876
aVoblivious
p877
aVobservant
p878
aVobsessive-compulsive
p879
aVobstreperous
p880
aVobstruct
p881
aVoccupy
p882
aVodd
p883
aVoddball
p884
aVoddish
p885
aVoff-center
p886
aVoff-the-wall
p887
aVoffhand
p888
aVoil-bearing
p889
aVold-hat
p890
aVon_the_go
p891
aVopen
p892
aVopen_air
p893
aVopen_up
p894
aVopened
p895
aVopenhearted
p896
aVoperable
p897
aVoperational
p898
aVopponent
p899
aVoptimistic
p900
aVorchestrate
p901
aVordered
p902
aVordinary
p903
aVorganise
p904
aVorganised
p905
aVorganize
p906
aVorganized
p907
aVoriented
p908
aVoriginative
p909
aVother
p910
aVotiose
p911
aVout-of-doors
p912
aVoutdoors
p913
aVoutlandish
p914
aVoutre
p915
aVoutwear
p916
aVoveractive
p917
aVoverambitious
p918
aVovercareful
p919
aVovercautious
p920
aVovercurious
p921
aVoveremotional
p922
aVoverexcited
p923
aVoversensitive
p924
aVoverstrung
p925
aVovert
p926
aVoxidizable
p927
aVpainful
p928
aVpale
p929
aVpall
p930
aVparanoiac
p931
aVparanoid
p932
aVparticipating
p933
aVparticular
p934
aVpathologic
p935
aVpathological
p936
aVpaying_attention
p937
aVpeckish
p938
aVpeculiar
p939
aVpeevish
p940
aVpensive
p941
aVperceptible
p942
aVperceptive
p943
aVperemptory
p944
aVperfect
p945
aVpersuasive
p946
aVpettish
p947
aVpetulant
p948
aVphysical
p949
aVpick
p950
aVpicnic
p951
aVpiece_of_cake
p952
aVpin
p953
aVpin_down
p954
aVpit
p955
aVpitiful
p956
aVplace
p957
aVplan
p958
aVplanning
p959
aVplay_out
p960
aVplayed_out
p961
aVpleaser
p962
aVplum
p963
aVplumb
p964
aVpock
p965
aVpoint
p966
aVpondering
p967
aVpop
p968
aVpopular
p969
aVpose
p970
aVpositive
p971
aVpowerless
p972
aVpractical
p973
aVpragmatic
p974
aVprecise
p975
aVpredatory
p976
aVpreparation
p977
aVprepare
p978
aVpress
p979
aVpress_down
p980
aVpretentious
p981
aVprime
p982
aVprinciple
p983
aVpristine
p984
aVprivy
p985
aVproactive
p986
aVprocedure
p987
aVproductive
p988
aVprofound
p989
aVprogressive
p990
aVproject
p991
aVprompt
p992
aVprompting
p993
aVpropel
p994
aVprotective
p995
aVprovident
p996
aVprovision
p997
aVpsychedelic
p998
aVpublic
p999
aVpugnacious
p1000
aVpulseless
p1001
aVpumped-up
p1002
aVpunctilious
p1003
aVpunctual
p1004
aVpunishable
p1005
aVpuny
p1006
aVpure
p1007
aVpush
p1008
aVpushful
p1009
aVpushover
p1010
aVquaint
p1011
aVqueasy
p1012
aVqueer
p1013
aVquestionable
p1014
aVquick
p1015
aVquick-witted
p1016
aVquotidian
p1017
aVradiosensitive
p1018
aVragged
p1019
aVraging
p1020
aVraise_up
p1021
aVrandy
p1022
aVraring
p1023
aVratiocinative
p1024
aVrational
p1025
aVrationale
p1026
aVravenous
p1027
aVraw
p1028
aVre-formed
p1029
aVreactive
p1030
aVready
p1031
aVrealistic
p1032
aVreasonable
p1033
aVreceptive
p1034
aVred-handed
p1035
aVreflective
p1036
aVregardless
p1037
aVregular
p1038
aVregulate
p1039
aVrelax
p1040
aVrelaxed
p1041
aVreliable
p1042
aVreligious
p1043
aVremind
p1044
aVreorganized
p1045
aVrepetitious
p1046
aVrepetitive
p1047
aVreserve
p1048
aVreserved
p1049
aVresilient
p1050
aVresolute
p1051
aVrespectable
p1052
aVresponsible
p1053
aVresponsible_for
p1054
aVresponsive
p1055
aVrestive
p1056
aVrestless
p1057
aVretard
p1058
aVretarded
p1059
aVrevolt
p1060
aVrich
p1061
aVrickety
p1062
aVrighteous
p1063
aVrippled
p1064
aVrisible
p1065
aVrock-loving
p1066
aVrose-colored
p1067
aVrouse
p1068
aVroutine
p1069
aVrubbishy
p1070
aVrubicund
p1071
aVrum
p1072
aVruminative
p1073
aVrummy
p1074
aVrun_aground
p1075
aVrun_down
p1076
aVrun_through
p1077
aVrust
p1078
aVruttish
p1079
aVsacred
p1080
aVsad
p1081
aVsalubrious
p1082
aVsanguine
p1083
aVsap
p1084
aVsapless
p1085
aVsatisfied
p1086
aVsaturated
p1087
aVscar
p1088
aVscare
p1089
aVscare_away
p1090
aVscare_off
p1091
aVscared
p1092
aVscathing
p1093
aVscavenge
p1094
aVscholarly
p1095
aVscotch
p1096
aVscrappy
p1097
aVscratchy
p1098
aVscreaming
p1099
aVscrubbed
p1100
aVscrupulous
p1101
aVseamless
p1102
aVsearing
p1103
aVsee
p1104
aVseething
p1105
aVself-assured
p1106
aVself-confident
p1107
aVself-destructive
p1108
aVself-directed
p1109
aVself-generated
p1110
aVself-loving
p1111
aVself-reliant
p1112
aVselfish
p1113
aVsend
p1114
aVsensible
p1115
aVsensitive
p1116
aVserious
p1117
aVserious-minded
p1118
aVserviceable
p1119
aVset
p1120
aVset_aside
p1121
aVsettle
p1122
aVsettled
p1123
aVsevere
p1124
aVsex
p1125
aVsexy
p1126
aVshady
p1127
aVshake
p1128
aVshake_up
p1129
aVshamed
p1130
aVshamefaced
p1131
aVshape
p1132
aVsharp
p1133
aVsharp-set
p1134
aVshift
p1135
aVshoddy
p1136
aVshopworn
p1137
aVshort
p1138
aVshy
p1139
aVsick
p1140
aVsicken
p1141
aVsickish
p1142
aVsimilar
p1143
aVsincere
p1144
aVsingular
p1145
aVsizable
p1146
aVsizeable
p1147
aVskittish
p1148
aVslack
p1149
aVslack_up
p1150
aVslacken
p1151
aVsleepy
p1152
aVsleepy-eyed
p1153
aVsleepyheaded
p1154
aVslimy
p1155
aVslow
p1156
aVslow_down
p1157
aVslow_up
p1158
aVsmart
p1159
aVsmothering
p1160
aVsmug
p1161
aVsnap
p1162
aVsnare
p1163
aVsociable
p1164
aVsocial
p1165
aVsocietal
p1166
aVsolitary
p1167
aVsore
p1168
aVsorrowful
p1169
aVsorry
p1170
aVsoulful
p1171
aVsound
p1172
aVspace
p1173
aVsparing
p1174
aVspecify
p1175
aVspent
p1176
aVspirited
p1177
aVspiritless
p1178
aVspiritual
p1179
aVspiritualist
p1180
aVspontaneous
p1181
aVspooky
p1182
aVsporting
p1183
aVsportsmanlike
p1184
aVsporty
p1185
aVspread
p1186
aVspread_out
p1187
aVspringy
p1188
aVsquare_off
p1189
aVsquare_up
p1190
aVstarry-eyed
p1191
aVstarve
p1192
aVstarved
p1193
aVsteamy
p1194
aVsteer
p1195
aVstimulate
p1196
aVstimulated
p1197
aVstinting
p1198
aVstir
p1199
aVstir_up
p1200
aVstirred
p1201
aVstock
p1202
aVstraightaway
p1203
aVstrain
p1204
aVstrained
p1205
aVstrand
p1206
aVstrange
p1207
aVstrenuous
p1208
aVstrip
p1209
aVstrong
p1210
aVstrong-growing
p1211
aVstubborn
p1212
aVstudious
p1213
aVstupid
p1214
aVstymie
p1215
aVstymy
p1216
aVsubject
p1217
aVsubject_matter
p1218
aVsubprogram
p1219
aVsubroutine
p1220
aVsubstance
p1221
aVsuccessful
p1222
aVsuicidal
p1223
aVsun-loving
p1224
aVsupercritical
p1225
aVsurface
p1226
aVsurface-active
p1227
aVsusceptible
p1228
aVsuspect
p1229
aVsuspicious
p1230
aVswaggering
p1231
aVsympathetic
p1232
aVsynergetic
p1233
aVtake
p1234
aVtake_aim
p1235
aVtake_heed
p1236
aVtalkative
p1237
aVtalky
p1238
aVtangential
p1239
aVtarget
p1240
aVtaut
p1241
aVtearaway
p1242
aVteased
p1243
aVtechy
p1244
aVtender
p1245
aVtense
p1246
aVtense_up
p1247
aVterrific
p1248
aVtesty
p1249
aVtetchy
p1250
aVthermolabile
p1251
aVthick
p1252
aVthin
p1253
aVthorough
p1254
aVthoughtful
p1255
aVthreadbare
p1256
aVthrifty
p1257
aVthrilled
p1258
aVthrillful
p1259
aVtidy
p1260
aVtimely
p1261
aVtimeworn
p1262
aVtimid
p1263
aVtinpot
p1264
aVtire
p1265
aVtire_out
p1266
aVtired
p1267
aVtireless
p1268
aVtongue-tied
p1269
aVtouristed
p1270
aVtragic
p1271
aVtragicomic
p1272
aVtrain
p1273
aVtrammel
p1274
aVtramontane
p1275
aVtrap
p1276
aVtrapped
p1277
aVtravel-worn
p1278
aVtreed
p1279
aVtrite
p1280
aVtroubled
p1281
aVtruculent
p1282
aVtrue
p1283
aVtrustworthy
p1284
aVtruthful
p1285
aVturn
p1286
aVturn_on
p1287
aVturn_one's_stomach
p1288
aVturn_over
p1289
aVturned_on
p1290
aVtype
p1291
aVugly
p1292
aVunabated
p1293
aVunaccented
p1294
aVunaccompanied
p1295
aVunaddicted
p1296
aVunarmed
p1297
aVunbeatable
p1298
aVunbend
p1299
aVunclouded
p1300
aVuncommunicative
p1301
aVuncongenial
p1302
aVunconquerable
p1303
aVunconstricted
p1304
aVuncontaminating
p1305
aVunconventional
p1306
aVundecided
p1307
aVundefendable
p1308
aVundefended
p1309
aVundercoat
p1310
aVundetermined
p1311
aVundisguised
p1312
aVuneasy
p1313
aVunenclosed
p1314
aVunenrgetic
p1315
aVunfamiliar
p1316
aVunfastened
p1317
aVunfold
p1318
aVunforbearing
p1319
aVunfree
p1320
aVunfrequented
p1321
aVunfriendly
p1322
aVungratified
p1323
aVunhealthy
p1324
aVunhesitating
p1325
aVunhurried
p1326
aVunimaginative
p1327
aVuninfected
p1328
aVuninhabited
p1329
aVuninterested
p1330
aVunion
p1331
aVunionise
p1332
aVunionised
p1333
aVunionize
p1334
aVunionized
p1335
aVunknown
p1336
aVunlax
p1337
aVunloaded
p1338
aVunmindful
p1339
aVunnaturalized
p1340
aVunobjectionable
p1341
aVunobstructed
p1342
aVunoriented
p1343
aVunoriginal
p1344
aVunpleasant
p1345
aVunpredictable
p1346
aVunpremeditated
p1347
aVunpretentious
p1348
aVunprompted
p1349
aVunprotected
p1350
aVunqualified
p1351
aVunquiet
p1352
aVunreal
p1353
aVunrefreshed
p1354
aVunrelaxed
p1355
aVunremarkable
p1356
aVunresolved
p1357
aVunrestrained
p1358
aVunrestricted
p1359
aVunretentive
p1360
aVunsatisfied
p1361
aVunscripted
p1362
aVunsealed
p1363
aVunsettled
p1364
aVunskilled
p1365
aVunsocial
p1366
aVunsoiled
p1367
aVunstable
p1368
aVunstoppered
p1369
aVunstrain
p1370
aVunstrained
p1371
aVunstressed
p1372
aVunsullied
p1373
aVunsure
p1374
aVuntiring
p1375
aVununderstood
p1376
aVunusual
p1377
aVunvanquishable
p1378
aVunwind
p1379
aVunworthy
p1380
aVunwritten
p1381
aVup-and-coming
p1382
aVupset
p1383
aVupstage
p1384
aVuse_up
p1385
aVvacuous
p1386
aVvalid
p1387
aVvalueless
p1388
aVvex
p1389
aVvigorous
p1390
aVvile
p1391
aVviolent
p1392
aVvirtual
p1393
aVvisible
p1394
aVvital
p1395
aVvivid
p1396
aVvolatile
p1397
aVvoluble
p1398
aVvulnerable
p1399
aVwalkover
p1400
aVwarm-toned
p1401
aVwary
p1402
aVwashed
p1403
aVwashed-out
p1404
aVwashy
p1405
aVwatch
p1406
aVwater-loving
p1407
aVwatery
p1408
aVweak
p1409
aVweakened
p1410
aVweakly
p1411
aVwear
p1412
aVwear_down
p1413
aVwear_out
p1414
aVwear_upon
p1415
aVweary
p1416
aVweird
p1417
aVwell-chosen
p1418
aVwell-conducted
p1419
aVwell-preserved
p1420
aVwell-read
p1421
aVwell-worn
p1422
aVwell_thought_out
p1423
aVwhacked
p1424
aVwhimsical
p1425
aVwhite
p1426
aVwholesome
p1427
aVwide-eyed
p1428
aVwide-open
p1429
aVwild
p1430
aVwild-eyed
p1431
aVwilling
p1432
aVwind_up
p1433
aVwipe_out
p1434
aVworkaday
p1435
aVworked_up
p1436
aVworking
p1437
aVworn-out
p1438
aVworn_out
p1439
aVworried
p1440
aVworry
p1441
aVworthless
p1442
aVwretched
p1443
aVyawning
p1444
aVyeasty
p1445
aS'alogia'
p1446
aS'attention seeking'
p1447
aS'back pain'
p1448
aS'color sensitivity'
p1449
aS'conceptual disorganization'
p1450
aS'craving carbohydrate'
p1451
aS'depersonalized'
p1452
aS'derealized'
p1453
aS'distractible'
p1454
aS'drugs'
p1455
aS'eye contact'
p1456
aS'finishing tasks'
p1457
aS'flat affect'
p1458
aS'following instructions'
p1459
aS'grounded'
p1460
aS'hallucinates'
p1461
aS'hypomanic'
p1462
aS'intrusive thoughts'
p1463
aS'light sensitivity'
p1464
aS'mannerisms'
p1465
aS'novelty-seeking'
p1466
aS'open to experience'
p1467
aS'perfectionistic'
p1468
aS'present-oriented'
p1469
aS'psychomotor retardation'
p1470
aS'racing thoughts'
p1471
aS'risk-seeking'
p1472
aS'risk-taking'
p1473
aS'self-blaming'
p1474
aS'self-controlled'
p1475
aS'self-improving'
p1476
aS'self-neglecting'
p1477
aS'sensory sensitivity'
p1478
aS'sound sensitivity'
p1479
aS'street smart'
p1480
aS'sustaining attention'
p1481
aS'thought blocking'
p1482
aS'thought insertion'
p1483
aS'thought withdrawal'
p1484
aS'thoughts of broadcasting'
p1485
aS'touch sensitivity'
p1486
aS'unusual thoughts'
p1487
aS'withdrawn emotionally'
p1488
aS'withdrawn socially'
p1489
a.