(lp0
Vabashed
p1
aVabject
p2
aVabreast
p3
aVacademic
p4
aVacceptance
p5
aVacceptive
p6
aVaccommodative
p7
aVaccountable
p8
aVache
p9
aVacross-the-board
p10
aVactive
p11
aVad-lib
p12
aVadmissive
p13
aVadroit
p14
aVadventurous
p15
aVadvised
p16
aVadynamic
p17
aVafraid
p18
aVaggravated
p19
aVaggressive
p20
aVagitated
p21
aVagreeable
p22
aVaim
p23
aValert
p24
aValive
p25
aVall-around
p26
aVall_in
p27
aValogia
p28
aValone
p29
aValoof
p30
aVambitious
p31
aVamenable
p32
aVamentiferous
p33
aVamicable
p34
aVamusing
p35
aVanemic
p36
aVanhedonia
p37
aVanswerable
p38
aVanswering
p39
aVantagonistic
p40
aVantic
p41
aVantsy
p42
aVanxious
p43
aVapathetic
p44
aVapplicative
p45
aVapt
p46
aVarable
p47
aVaroused
p48
aVashamed
p49
aVasleep
p50
aVasphyxiating
p51
aVaspirant
p52
aVassimilative
p53
aVat_loggerheads
p54
aVaudacious
p55
aVautonomous
p56
aVaverage
p57
aVaweary
p58
aVbackache
p59
aVbackward
p60
aVbad
p61
aVbest-selling
p62
aVbetter
p63
aVbitter
p64
aVbittersweet
p65
aVbizarre
p66
aVblack
p67
aVblame
p68
aVblank
p69
aVbleary
p70
aVblessed
p71
aVblissful
p72
aVblood-and-guts
p73
aVblow-by-blow
p74
aVblown
p75
aVbookish
p76
aVbored
p77
aVbound
p78
aVbreathing
p79
aVbreathless
p80
aVbright
p81
aVbrisk
p82
aVbrokenhearted
p83
aVbrooding
p84
aVbrutal
p85
aVbullish
p86
aVburned-out
p87
aVbustling
p88
aVbusy
p89
aVcagey
p90
aVcanty
p91
aVcapricious
p92
aVcareful
p93
aVcareless
p94
aVcareworn
p95
aVcasual
p96
aVcautious
p97
aVcerebral
p98
aVcertain
p99
aVchaffy
p100
aVchange
p101
aVchange_state
p102
aVchaste
p103
aVchatty
p104
aVcheerful
p105
aVchurchgoing
p106
aVchurchly
p107
aVcitywide
p108
aVclanging
p109
aVclean
p110
aVcleanable
p111
aVcleanly
p112
aVcliff-hanging
p113
aVclose
p114
aVcoaxing
p115
aVcogent
p116
aVcognitive_state
p117
aVcoherent
p118
aVcold
p119
aVcommiserative
p120
aVcommon
p121
aVcommunicative
p122
aVcompelling
p123
aVcomprehensive
p124
aVcompulsive
p125
aVconcentrated
p126
aVcondolent
p127
aVconfident
p128
aVconfused
p129
aVconfusion
p130
aVconscientious
p131
aVconsecutive
p132
aVconsideration
p133
aVconstipated
p134
aVconsume
p135
aVconsuming
p136
aVcontemplation
p137
aVcontentedness
p138
aVcontrol
p139
aVconversant
p140
aVcosmopolitan
p141
aVcountrywide
p142
aVcountywide
p143
aVcragfast
p144
aVcranky
p145
aVcrave
p146
aVcrazy
p147
aVcreative
p148
aVcretinous
p149
aVcritical
p150
aVcurious
p151
aVdangerous
p152
aVdazed
p153
aVdead
p154
aVdeceptive
p155
aVdecisive
p156
aVdeep
p157
aVdefy
p158
aVdegage
p159
aVdejected
p160
aVdelay
p161
aVdelayed
p162
aVdelirious
p163
aVdelusional
p164
aVdepersonalize
p165
aVderealized
p166
aVdesire
p167
aVdespairing
p168
aVdespondent
p169
aVdetailed
p170
aVdevout
p171
aVdiffident
p172
aVdigressive
p173
aVdiligent
p174
aVdim-witted
p175
aVdirty
p176
aVdisagreeable
p177
aVdiscomposed
p178
aVdiscontented
p179
aVdiscriminating
p180
aVdishonest
p181
aVdisorganized
p182
aVdisquieted
p183
aVdissuasive
p184
aVdistracted
p185
aVdistraught
p186
aVdiurnal
p187
aVdoleful
p188
aVdoor-to-door
p189
aVdown-to-earth
p190
aVdownright
p191
aVdreamy
p192
aVdriving
p193
aVdrooping
p194
aVdrug
p195
aVdry-cleaned
p196
aVeat
p197
aVeclectic
p198
aVeconomical
p199
aVedgy
p200
aVeducated
p201
aVeerie
p202
aVefficient
p203
aVegotistic
p204
aVelectric
p205
aVemotional
p206
aVempathic
p207
aVencroaching
p208
aVencyclopedic
p209
aVenergetic
p210
aVentertainer
p211
aVerudite
p212
aVexhausted
p213
aVexisting
p214
aVexotic
p215
aVexpeditious
p216
aVexpressive
p217
aVexquisite
p218
aVextreme
p219
aVfabian
p220
aVfail
p221
aVfaint
p222
aVfamiliar
p223
aVfamished
p224
aVfanciful
p225
aVfashionable
p226
aVfastidious
p227
aVfavorite
p228
aVfecund
p229
aVfeeble
p230
aVfeverish
p231
aVfickle
p232
aVfictive
p233
aVfierce
p234
aVflimsy
p235
aVflunky
p236
aVfootsore
p237
aVforlorn
p238
aVfrantic
p239
aVfreaky
p240
aVfrenzied
p241
aVfresh
p242
aVfriendly
p243
aVfrightened
p244
aVfunctional
p245
aVfur-bearing
p246
aVfuture
p247
aVfutureless
p248
aVfuzzy
p249
aVgaze
p250
aVgingerly
p251
aVglad
p252
aVglib
p253
aVgloomy
p254
aVgoing
p255
aVgolden
p256
aVgood-for-nothing
p257
aVgothic
p258
aVgrandiose
p259
aVgraphic
p260
aVguarded
p261
aVguilty
p262
aVhallucinate
p263
aVhaphazard
p264
aVhappy
p265
aVhardheaded
p266
aVhardworking
p267
aVhazardous
p268
aVhead-on
p269
aVhealthy
p270
aVheavyhearted
p271
aVheedful
p272
aVheedless
p273
aVhelpless
p274
aVhep
p275
aVhigh-energy
p276
aVhonest
p277
aVhopeful
p278
aVhopeless
p279
aVhospitable
p280
aVhostile
p281
aVhot
p282
aVhuffy
p283
aVhumorous
p284
aVhungry
p285
aVhyperactive
p286
aVhypochondriac
p287
aVhysterical
p288
aVidiosyncrasy
p289
aVill
p290
aVill-natured
p291
aVimaginative
p292
aVimbecile
p293
aVimmaculate
p294
aVimmediate
p295
aVimmoral
p296
aVimpatient
p297
aVimpractical
p298
aVimpulsive
p299
aVimpute
p300
aVinactive
p301
aVinattentive
p302
aVincautious
p303
aVincoherent
p304
aVinconstant
p305
aVincorrupt
p306
aVindecisive
p307
aVindefatigable
p308
aVindependent
p309
aVindividual
p310
aVindividualist
p311
aVindrawn
p312
aVinformed
p313
aVinsane
p314
aVinsensitive
p315
aVinsightful
p316
aVinsoluble
p317
aVinstant
p318
aVintellectual
p319
aVintelligent
p320
aVintense
p321
aVintensified
p322
aVintensive
p323
aVinterested
p324
aVinterfaith
p325
aVinterfering
p326
aVinteroperable
p327
aVintrusive
p328
aVinvincible
p329
aVirrelevant
p330
aVirreligious
p331
aVirresponsible
p332
aVisotonic
p333
aViterative
p334
aVjaded
p335
aVjerry-built
p336
aVjolted
p337
aVknackered
p338
aVknowing
p339
aVknowledgeable
p340
aVlaid-back
p341
aVlarge
p342
aVlatter-day
p343
aVlaughing
p344
aVlaw-abiding
p345
aVlawful
p346
aVlethargic
p347
aVliable
p348
aVlisten
p349
aVlistless
p350
aVliving
p351
aVlook
p352
aVmain
p353
aVmanky
p354
aVmanque
p355
aVmatter-of-fact
p356
aVmelancholy
p357
aVmethodical
p358
aVmeticulous
p359
aVmild
p360
aVminute
p361
aVmisunderstood
p362
aVmoral
p363
aVmoralistic
p364
aVmoronic
p365
aVnamby-pamby
p366
aVnauseated
p367
aVnegligible
p368
aVnervous
p369
aVneurotic
p370
aVnocturnal
p371
aVnoncompetitive
p372
aVnoncomprehensive
p373
aVnonrepetitive
p374
aVnugatory
p375
aVnut-bearing
p376
aVobsessive-compulsive
p377
aVoddish
p378
aVoffhand
p379
aVoil-bearing
p380
aVomnibus
p381
aVopen
p382
aVoperable
p383
aVopponent
p384
aVoptimistic
p385
aVordered
p386
aVorganized
p387
aVother
p388
aVotiose
p389
aVoverambitious
p390
aVovercareful
p391
aVovercautious
p392
aVoversensitive
p393
aVpainful
p394
aVpale
p395
aVparanoid
p396
aVparticular
p397
aVpast
p398
aVpathological
p399
aVpatient
p400
aVpeculiarity
p401
aVpensive
p402
aVperceive
p403
aVperceptive
p404
aVperfectionist
p405
aVpersonalize
p406
aVpersuasive
p407
aVpessimistic
p408
aVphysical
p409
aVplanning
p410
aVpleaser
p411
aVplenary
p412
aVpopular
p413
aVpractical
p414
aVprecocious
p415
aVpresent
p416
aVpretentious
p417
aVpristine
p418
aVprivy
p419
aVprocedure
p420
aVprocrastinate
p421
aVproductive
p422
aVprofound
p423
aVprompt
p424
aVprotective
p425
aVpsychedelic
p426
aVpsychological_state
p427
aVpsychotic
p428
aVpumped-up
p429
aVpunctual
p430
aVpuny
p431
aVpushful
p432
aVpushover
p433
aVquaint
p434
aVquick-witted
p435
aVragged
p436
aVraging
p437
aVrational
p438
aVreactive
p439
aVrealistic
p440
aVreasonable
p441
aVreceptive
p442
aVrecluse
p443
aVrelaxed
p444
aVreligious
p445
aVrepetitive
p446
aVreserved
p447
aVresilient
p448
aVresponsible
p449
aVresponsive
p450
aVrested
p451
aVrestive
p452
aVrestless
p453
aVretarded
p454
aVretentive
p455
aVrich
p456
aVrighteous
p457
aVrose-colored
p458
aVroutine
p459
aVrubbishy
p460
aVsad
p461
aVsanguine
p462
aVschizophrenic
p463
aVscholarly
p464
aVschoolwide
p465
aVscreaming
p466
aVscrubbed
p467
aVself-assured
p468
aVself-destructive
p469
aVselfish
p470
aVsense
p471
aVsensitive
p472
aVsensitivity
p473
aVserviceable
p474
aVsevere
p475
aVsexy
p476
aVsleepy
p477
aVslowdown
p478
aVsmart
p479
aVsmothering
p480
aVsocial
p481
aVsorrowful
p482
aVspatiotemporal
p483
aVspirited
p484
aVspontaneous
p485
aVsporting
p486
aVspringy
p487
aVstarry-eyed
p488
aVstatewide
p489
aVstrained
p490
aVstrange
p491
aVstrenuous
p492
aVstrong
p493
aVstuck
p494
aVstudious
p495
aVsuper
p496
aVswaggering
p497
aVsympathetic
p498
aVtarget
p499
aVtaut
p500
aVtense
p501
aVterrific
p502
aVthick
p503
aVthinking
p504
aVthorough
p505
aVthoughtful
p506
aVthrifty
p507
aVtimely
p508
aVtinpot
p509
aVtired
p510
aVtouristed
p511
aVtragic
p512
aVtragicomic
p513
aVtravel-worn
p514
aVtroubled
p515
aVtrue-to-life
p516
aVtrustworthy
p517
aVumbrella
p518
aVunabated
p519
aVunaccompanied
p520
aVunadventurous
p521
aVunagitated
p522
aVunambitious
p523
aVuncommunicative
p524
aVunconquerable
p525
aVunconstipated
p526
aVunconventional
p527
aVuncreative
p528
aVunforbearing
p529
aVunfriendly
p530
aVunhappy
p531
aVunhesitating
p532
aVunhurried
p533
aVunimaginative
p534
aVuninformed
p535
aVuninterested
p536
aVunintrusive
p537
aVunoriented
p538
aVunpopular
p539
aVunpredictable
p540
aVunproductive
p541
aVunpunctual
p542
aVunrealistic
p543
aVunreceptive
p544
aVunrefreshed
p545
aVunrelaxed
p546
aVunreliable
p547
aVunreserved
p548
aVunresponsive
p549
aVunretentive
p550
aVunscholarly
p551
aVunscripted
p552
aVunsocial
p553
aVunsoiled
p554
aVunstrained
p555
aVunstuck
p556
aVunsullied
p557
aVunsympathetic
p558
aVununderstood
p559
aVvaluable
p560
aVvalueless
p561
aVveridical
p562
aVvigorous
p563
aVviolent
p564
aVvirtual
p565
aVvoluble
p566
aVvulnerable
p567
aVwashed
p568
aVweak
p569
aVweakened
p570
aVweather
p571
aVweird
p572
aVwell-conducted
p573
aVwell-read
p574
aVwhacked
p575
aVwild
p576
aVwild-eyed
p577
aVworking
p578
aVworsen
p579
aVworthless
p580
aVyeasty
p581
a.