(lp0
S'active'
p1
aS'adventurous'
p2
aS'aggressive'
p3
aS'agitated'
p4
aS'agreeable'
p5
aS'alogia'
p6
aS'aloof'
p7
aS'ambitious'
p8
aS'anhedonia'
p9
aS'anxious'
p10
aS'apathetic'
p11
aS'attention seeking'
p12
aS'average'
p13
aS'back pain'
p14
aS'blank'
p15
aS'breathless'
p16
aS'capricious'
p17
aS'careful'
p18
aS'careless'
p19
aS'cautious'
p20
aS'clanging'
p21
aS'clean'
p22
aS'clever'
p23
aS'color sensitivity'
p24
aS'conceptual disorganization'
p25
aS'constipated'
p26
aS'contemplative'
p27
aS'content'
p28
aS'cooperative'
p29
aS'craving carbohydrate'
p30
aS'creative'
p31
aS'critical'
p32
aS'curious'
p33
aS'deceptive'
p34
aS'decisive'
p35
aS'deliberate'
p36
aS'delusional'
p37
aS'depersonalized'
p38
aS'depressed'
p39
aS'derealized'
p40
aS'determined'
p41
aS'directed'
p42
aS'disoriented'
p43
aS'distractible'
p44
aS'drugs'
p45
aS'early-bird'
p46
aS'eating'
p47
aS'eccentric'
p48
aS'eclectic'
p49
aS'embarrassable'
p50
aS'emotional'
p51
aS'empathetic'
p52
aS'energetic'
p53
aS'excited'
p54
aS'expeditious'
p55
aS'expressive'
p56
aS'eye contact'
p57
aS'famished'
p58
aS'fatigued'
p59
aS'feeble'
p60
aS'feeling invincible'
p61
aS'finishing tasks'
p62
aS'flakey'
p63
aS'flat affect'
p64
aS'following instructions'
p65
aS'forgetful'
p66
aS'frugal'
p67
aS'funny'
p68
aS'grandiose'
p69
aS'grounded'
p70
aS'guilty'
p71
aS'hallucinates'
p72
aS'hallucinates (auditory)'
p73
aS'hallucinates (smell)'
p74
aS'hallucinates (tactile)'
p75
aS'hallucinates (visual)'
p76
aS'happy'
p77
aS'hard-working'
p78
aS'health-conscious'
p79
aS'heartbroken'
p80
aS'honest'
p81
aS'hopeless'
p82
aS'horny'
p83
aS'hostile'
p84
aS'hyperactive'
p85
aS'hypochondriatic'
p86
aS'hypomanic'
p87
aS'imaginative'
p88
aS'impatient'
p89
aS'impulsive'
p90
aS'incoherent'
p91
aS'individualistic'
p92
aS'industrious'
p93
aS'informed'
p94
aS'insightful'
p95
aS'intense (emotionally)'
p96
aS'intrusive'
p97
aS'intrusive thoughts'
p98
aS'irritable'
p99
aS'law-abiding'
p100
aS'lethargic'
p101
aS'light sensitivity'
p102
aS'listening'
p103
aS'logical'
p104
aS'lonely'
p105
aS'mannerisms'
p106
aS'meticulous'
p107
aS'misunderstood'
p108
aS'moral'
p109
aS'narcissistic'
p110
aS'nauseated'
p111
aS'nervous'
p112
aS'nocturnal'
p113
aS'novelty-seeking'
p114
aS'numb'
p115
aS'obsessive-compulsive'
p116
aS'open'
p117
aS'open to experience'
p118
aS'optimistic'
p119
aS'organized'
p120
aS'paranoid'
p121
aS'pathological'
p122
aS'people pleaser'
p123
aS'perfectionistic'
p124
aS'persuasive'
p125
aS'planning'
p126
aS'popular'
p127
aS'practical'
p128
aS'present-oriented'
p129
aS'productive'
p130
aS'prompt'
p131
aS'psychomotor retardation'
p132
aS'pushover'
p133
aS'quick-witted'
p134
aS'racing thoughts'
p135
aS'rationale'
p136
aS'reactive'
p137
aS'relaxed'
p138
aS'religious'
p139
aS'repetitious'
p140
aS'reserved'
p141
aS'resilient'
p142
aS'responsible'
p143
aS'responsive'
p144
aS'restless'
p145
aS'retarded'
p146
aS'risk-seeking'
p147
aS'risk-taking'
p148
aS'routinized'
p149
aS'sad'
p150
aS'scared'
p151
aS'scholarly'
p152
aS'self-blaming'
p153
aS'self-confident'
p154
aS'self-controlled'
p155
aS'self-directed'
p156
aS'self-improving'
p157
aS'self-neglecting'
p158
aS'sensitive'
p159
aS'sensory sensitivity'
p160
aS'shy'
p161
aS'sleepy'
p162
aS'social'
p163
aS'sore'
p164
aS'sound sensitivity'
p165
aS'spontaneous'
p166
aS'strange'
p167
aS'street smart'
p168
aS'studious'
p169
aS'suicidal'
p170
aS'sustaining attention'
p171
aS'sympathetic'
p172
aS'talkative'
p173
aS'tangential'
p174
aS'tense'
p175
aS'thought blocking'
p176
aS'thought insertion'
p177
aS'thought withdrawal'
p178
aS'thoughtful'
p179
aS'thoughts of broadcasting'
p180
aS'tired'
p181
aS'touch sensitivity'
p182
aS'trapped'
p183
aS'unusual thoughts'
p184
aS'volatile'
p185
aS'weak'
p186
aS'withdrawn emotionally'
p187
aS'withdrawn socially'
p188
aS'worried'
p189
aS'worthless'
p190
a.